; Function Attrs: mustprogress uwtable
define noundef zeroext i1 @_ZNK6icu_758numparse4impl13SymbolMatcher5matchERNS_13StringSegmentERNS1_12ParsedNumberER10UErrorCode(ptr noundef nonnull align 8 dereferenceable(80) %this, ptr noundef nonnull align 8 dereferenceable(17) %segment, ptr noundef nonnull align 8 dereferenceable(216) %result, ptr nocapture nonnull readnone align 4 %0) unnamed_addr #0 align 2 {
entry:
  %vtable = load ptr, ptr %this, align 8
  %vfn = getelementptr inbounds i8, ptr %vtable, i64 56
  %1 = load ptr, ptr %vfn, align 8
  %call = tail call noundef zeroext i1 %1(ptr noundef nonnull align 8 dereferenceable(80) %this, ptr noundef nonnull align 8 dereferenceable(216) %result)
  br i1 %call, label %return, label %if.end

if.end:                                           ; preds = %entry
  %fUnion.i = getelementptr inbounds i8, ptr %this, i64 16
  %2 = load i16, ptr %fUnion.i, align 8
  %cmp.i = icmp ugt i16 %2, 31
  br i1 %cmp.i, label %if.then3, label %if.end14

if.then3:                                         ; preds = %if.end
  %fString = getelementptr inbounds i8, ptr %this, i64 8
  %call5 = tail call noundef i32 @_ZN6icu_7513StringSegment21getCommonPrefixLengthERKNS_13UnicodeStringE(ptr noundef nonnull align 8 dereferenceable(17) %segment, ptr noundef nonnull align 8 dereferenceable(64) %fString)
  %3 = load i16, ptr %fUnion.i, align 8
  %cmp.i.i = icmp slt i16 %3, 0
  %4 = ashr i16 %3, 5
  %shr.i.i = sext i16 %4 to i32
  %fLength.i = getelementptr inbounds i8, ptr %this, i64 20
  %5 = load i32, ptr %fLength.i, align 4
  %cond.i = select i1 %cmp.i.i, i32 %5, i32 %shr.i.i
  %cmp = icmp eq i32 %call5, %cond.i
  br i1 %cmp, label %if.then8, label %if.end14

if.then8:                                         ; preds = %if.then3
  tail call void @_ZN6icu_7513StringSegment12adjustOffsetEi(ptr noundef nonnull align 8 dereferenceable(17) %segment, i32 noundef %call5)
  %vtable11 = load ptr, ptr %this, align 8
  %vfn12 = getelementptr inbounds i8, ptr %vtable11, i64 64
  %6 = load ptr, ptr %vfn12, align 8
  tail call void %6(ptr noundef nonnull align 8 dereferenceable(80) %this, ptr noundef nonnull align 8 dereferenceable(17) %segment, ptr noundef nonnull align 8 dereferenceable(216) %result)
  br label %return

if.end14:                                         ; preds = %if.then3, %if.end
  %overlap.0 = phi i32 [ 0, %if.end ], [ %call5, %if.then3 ]
  %call15 = tail call noundef i32 @_ZNK6icu_7513StringSegment12getCodePointEv(ptr noundef nonnull align 8 dereferenceable(17) %segment)
  %cmp16.not = icmp eq i32 %call15, -1
  br i1 %cmp16.not, label %if.end23, label %land.lhs.true

land.lhs.true:                                    ; preds = %if.end14
  %fUniSet = getelementptr inbounds i8, ptr %this, i64 72
  %7 = load ptr, ptr %fUniSet, align 8
  %call17 = tail call noundef signext i8 @_ZNK6icu_7510UnicodeSet8containsEi(ptr noundef nonnull align 8 dereferenceable(200) %7, i32 noundef %call15)
  %tobool18.not = icmp eq i8 %call17, 0
  br i1 %tobool18.not, label %if.end23, label %if.then19

if.then19:                                        ; preds = %land.lhs.true
  %cmp20 = icmp ult i32 %call15, 65536
  %cond = select i1 %cmp20, i32 1, i32 2
  tail call void @_ZN6icu_7513StringSegment12adjustOffsetEi(ptr noundef nonnull align 8 dereferenceable(17) %segment, i32 noundef %cond)
  %vtable21 = load ptr, ptr %this, align 8
  %vfn22 = getelementptr inbounds i8, ptr %vtable21, i64 64
  %8 = load ptr, ptr %vfn22, align 8
  tail call void %8(ptr noundef nonnull align 8 dereferenceable(80) %this, ptr noundef nonnull align 8 dereferenceable(17) %segment, ptr noundef nonnull align 8 dereferenceable(216) %result)
  br label %return

if.end23:                                         ; preds = %land.lhs.true, %if.end14
  %call24 = tail call noundef i32 @_ZNK6icu_7513StringSegment6lengthEv(ptr noundef nonnull align 8 dereferenceable(17) %segment)
  %cmp25 = icmp eq i32 %overlap.0, %call24
  br label %return

return:                                           ; preds = %entry, %if.end23, %if.then19, %if.then8
  %retval.0 = phi i1 [ false, %if.then19 ], [ %cmp25, %if.end23 ], [ false, %if.then8 ], [ false, %entry ]
  ret i1 %retval.0
}